Certificate:
    Data:
        Version: 3 (0x2)
        Serial Number: 1 (0x1)
    Signature Algorithm: sha256WithRSAEncryption
        Issuer: C=CN, ST=SH, L=Shanghai, O=KOAL, CN=www.koal.com
        Validity
            Not Before: Jul 24 15:50:45 2019 GMT
            Not After : Jul 23 15:50:45 2020 GMT
        Subject: CN=www.my.com
        Subject Public Key Info:
            Public Key Algorithm: rsaEncryption
                Public-Key: (2048 bit)
                Modulus:
                    00:f3:e0:d8:15:42:e7:76:65:1b:1f:d6:95:a3:f3:
                    ee:1f:03:91:48:ca:90:d9:be:7d:b6:3b:20:a3:f3:
                    ae:ec:65:50:be:67:59:24:5b:ce:13:5c:cd:3f:fb:
                    5c:97:89:18:d3:b3:a1:82:f2:d0:88:2f:69:7b:91:
                    f7:2c:ea:fe:d0:d4:9d:af:53:3a:90:0b:81:b7:cc:
                    09:a5:09:d9:9e:b8:ec:4f:38:32:9c:b9:9b:c4:db:
                    14:eb:60:f8:05:fe:1b:96:80:e9:c1:78:6b:76:fc:
                    ab:57:f7:e1:c7:00:22:f9:40:5e:bc:87:c4:48:90:
                    b4:3e:85:1f:a3:07:e9:23:b4:fd:16:2f:cc:76:ef:
                    d1:e5:a8:4c:a2:9b:df:79:f8:66:c0:cf:f7:ac:bf:
                    05:ec:18:2c:c8:b5:86:89:21:0f:26:d5:2c:ab:26:
                    e5:ec:14:5b:b5:62:a6:ca:91:a0:4f:3d:6e:61:25:
                    84:bf:9c:28:a1:2d:58:cd:ac:80:97:c7:8c:94:82:
                    da:ec:0a:75:b4:88:8c:d9:8d:69:80:a8:04:63:f9:
                    1f:76:fb:f5:81:aa:ee:01:97:9b:9f:7c:54:e0:45:
                    70:9e:0a:d5:ca:23:91:51:93:81:86:5b:97:dd:78:
                    73:a6:53:19:42:ac:21:12:be:d7:87:0b:e4:09:01:
                    d2:71
                Exponent: 65537 (0x10001)
        X509v3 extensions:
            X509v3 Basic Constraints: 
                CA:FALSE
            Netscape Comment: 
                OpenSSL Generated Certificate
            X509v3 Subject Key Identifier: 
                4E:AB:05:63:2A:CB:FE:FC:C6:65:C1:57:D7:D2:D0:4B:26:99:69:A4
            X509v3 Authority Key Identifier: 
                keyid:B3:C8:BE:69:6E:FD:74:9F:D8:9A:3D:89:DC:5F:45:2A:89:CD:E8:8F

    Signature Algorithm: sha256WithRSAEncryption
         02:29:e0:a0:29:6d:59:ee:f1:8a:a7:1e:40:ed:71:54:ee:f5:
         e8:ea:b8:3d:f3:72:ed:69:b4:99:d6:3e:fe:ab:42:7f:e9:43:
         10:67:52:b4:13:3d:0e:87:de:1c:d9:bb:98:ab:38:92:8f:ee:
         e8:b6:a7:e0:c5:dd:c3:74:07:20:16:32:b8:ba:63:66:57:e9:
         d7:cc:7b:b3:dd:ce:01:8f:29:33:d4:18:63:d3:4d:1f:04:80:
         28:c6:37:58:26:b3:fe:f0:84:fb:62:37:9b:54:31:ed:a0:50:
         19:90:6b:a6:4b:d2:e7:27:1f:1c:bb:de:2f:ae:f8:7d:2d:57:
         cd:74:69:68:e7:e9:3e:a3:ad:9c:bd:7b:fe:06:c2:e6:34:f2:
         a1:34:49:2b:e2:5a:0b:ce:2d:a0:e1:be:47:39:40:59:79:d2:
         13:70:fa:ad:9e:da:5f:32:c1:e4:6f:55:dc:ba:94:c4:8e:17:
         22:b4:95:8c:d6:a6:3c:0b:56:e1:35:94:f7:0c:7f:08:55:6d:
         4c:74:cd:38:bc:4b:15:b5:1b:37:a4:e6:16:55:97:f4:2e:0c:
         c2:d4:4a:0f:2f:ca:c0:84:4e:8e:f7:0d:85:aa:1d:28:69:f1:
         9a:99:f7:6f:d2:60:a3:dd:1e:19:f4:30:83:b6:dd:d7:ce:61:
         56:70:d5:4f
-----BEGIN CERTIFICATE-----
MIIDXjCCAkagAwIBAgIBATANBgkqhkiG9w0BAQsFADBTMQswCQYDVQQGEwJDTjEL
MAkGA1UECAwCU0gxETAPBgNVBAcMCFNoYW5naGFpMQ0wCwYDVQQKDARLT0FMMRUw
EwYDVQQDDAx3d3cua29hbC5jb20wHhcNMTkwNzI0MTU1MDQ1WhcNMjAwNzIzMTU1
MDQ1WjAVMRMwEQYDVQQDDAp3d3cubXkuY29tMIIBIjANBgkqhkiG9w0BAQEFAAOC
AQ8AMIIBCgKCAQEA8+DYFULndmUbH9aVo/PuHwORSMqQ2b59tjsgo/Ou7GVQvmdZ
JFvOE1zNP/tcl4kY07OhgvLQiC9pe5H3LOr+0NSdr1M6kAuBt8wJpQnZnrjsTzgy
nLmbxNsU62D4Bf4bloDpwXhrdvyrV/fhxwAi+UBevIfESJC0PoUfowfpI7T9Fi/M
du/R5ahMopvfefhmwM/3rL8F7BgsyLWGiSEPJtUsqybl7BRbtWKmypGgTz1uYSWE
v5wooS1YzayAl8eMlILa7Ap1tIiM2Y1pgKgEY/kfdvv1garuAZebn3xU4EVwngrV
yiORUZOBhluX3XhzplMZQqwhEr7XhwvkCQHScQIDAQABo3sweTAJBgNVHRMEAjAA
MCwGCWCGSAGG+EIBDQQfFh1PcGVuU1NMIEdlbmVyYXRlZCBDZXJ0aWZpY2F0ZTAd
BgNVHQ4EFgQUTqsFYyrL/vzGZcFX19LQSyaZaaQwHwYDVR0jBBgwFoAUs8i+aW79
dJ/Ymj2J3F9FKonN6I8wDQYJKoZIhvcNAQELBQADggEBAAIp4KApbVnu8YqnHkDt
cVTu9ejquD3zcu1ptJnWPv6rQn/pQxBnUrQTPQ6H3hzZu5irOJKP7ui2p+DF3cN0
ByAWMri6Y2ZX6dfMe7PdzgGPKTPUGGPTTR8EgCjGN1gms/7whPtiN5tUMe2gUBmQ
a6ZL0ucnHxy73i+u+H0tV810aWjn6T6jrZy9e/4GwuY08qE0SSviWgvOLaDhvkc5
QFl50hNw+q2e2l8yweRvVdy6lMSOFyK0lYzWpjwLVuE1lPcMfwhVbUx0zTi8SxW1
Gzek5hZVl/QuDMLUSg8vysCETo73DYWqHShp8ZqZ92/SYKPdHhn0MIO23dfOYVZw
1U8=
-----END CERTIFICATE-----
