Certificate:
    Data:
        Version: 3 (0x2)
        Serial Number: 1 (0x1)
    Signature Algorithm: sha256WithRSAEncryption
        Issuer: C=AU, ST=Sydney, O=AAAA Inc., CN=www.aaaa.com
        Validity
            Not Before: Jul 25 02:54:42 2019 GMT
            Not After : Jul 22 02:54:42 2029 GMT
        Subject: C=AU, ST=Some-State, O=Internet Widgits Pty Ltd, CN=104.248.168.101
        Subject Public Key Info:
            Public Key Algorithm: rsaEncryption
                Public-Key: (2048 bit)
                Modulus:
                    00:a1:eb:c4:54:a1:05:1c:c1:6a:3e:15:66:19:e5:
                    7f:ac:36:f5:d9:63:92:f6:5d:e7:db:75:3d:75:27:
                    d6:d1:ed:35:6f:fb:c5:de:d8:e3:3f:b2:5d:c4:a5:
                    56:bd:02:d3:68:b1:2d:c0:d9:e6:cb:1a:a6:8d:72:
                    ef:d6:8e:2e:a8:79:71:bc:34:7b:93:f4:ed:e4:c5:
                    78:87:89:eb:18:db:66:27:db:6a:58:5e:78:ec:1b:
                    ab:15:f2:3d:a4:90:e8:d6:32:5c:c3:e0:18:9e:eb:
                    13:1e:d5:27:c0:c5:42:4e:1c:28:37:28:49:9e:e4:
                    a8:e7:ec:48:fb:c3:99:5e:97:cd:26:4e:9d:89:b9:
                    35:27:2a:7d:e5:21:36:4d:ff:c8:0d:1d:be:87:f2:
                    f3:7e:51:11:2b:0f:92:b4:6b:b1:82:b7:41:c7:f2:
                    89:8b:69:2c:b8:80:93:2d:1b:e9:fa:ef:93:59:04:
                    84:8b:4d:72:f2:eb:a4:92:18:79:52:66:a5:66:4a:
                    fd:8d:17:21:9d:70:f8:38:71:08:ce:8b:da:ed:5e:
                    67:54:5c:3e:38:88:90:f9:ae:fe:78:46:a8:9f:31:
                    af:26:8f:b3:bc:92:b4:6f:92:db:c7:17:b2:6e:9a:
                    3a:fa:46:c1:46:5e:5e:dc:b7:e8:d5:88:21:82:dc:
                    ed:1f
                Exponent: 65537 (0x10001)
        X509v3 extensions:
            X509v3 Basic Constraints: 
                CA:FALSE
            X509v3 Subject Key Identifier: 
                DF:14:62:66:6D:BD:A7:D7:2B:FC:8F:70:D6:7D:52:92:38:0A:41:13
            X509v3 Authority Key Identifier: 
                keyid:AF:8D:76:94:57:8A:41:62:E6:83:05:22:B9:C9:36:63:A8:7B:AB:BD

    Signature Algorithm: sha256WithRSAEncryption
         5f:24:ec:5e:ea:5c:04:4f:c5:6c:20:30:21:be:84:91:1e:e2:
         ba:96:13:35:d7:5f:9e:f0:a9:69:2e:de:5b:47:9b:ee:0d:a2:
         00:3f:64:c5:9a:5f:be:84:b8:8f:d7:cf:81:64:87:4f:21:a5:
         c6:9f:bf:ce:41:7d:99:76:93:15:e1:63:7d:6c:8a:cb:fa:ff:
         73:e9:b6:b9:18:e2:a5:f9:46:c3:cf:a2:39:a8:78:98:1d:bd:
         96:5a:49:9e:f0:08:3d:52:7e:e8:8b:a5:b7:15:7c:04:f5:b7:
         90:d3:bf:ab:84:7b:36:82:a5:b2:d2:0e:4f:1a:55:b3:39:e6:
         a0:5e:c5:1b:ce:32:d9:71:81:7f:88:98:14:51:f5:76:f4:e6:
         3c:89:02:d5:f5:af:78:8d:57:1f:79:e3:75:12:90:e8:bf:69:
         e7:50:57:06:eb:4f:ae:8e:a0:af:a8:f8:8a:33:b5:d4:63:dc:
         a8:30:1e:dd:0c:34:27:59:89:87:4a:77:fc:68:88:5a:4d:e6:
         b9:cb:ae:35:bd:de:fd:ad:df:60:37:75:f8:06:ed:9e:41:49:
         6d:48:8b:7c:eb:03:a6:42:46:6f:5c:a5:92:1a:84:cb:67:65:
         79:7b:90:e2:38:f6:c4:c1:c1:76:cd:55:53:e0:9b:78:ca:e4:
         33:71:c4:b0
-----BEGIN CERTIFICATE-----
MIIDcDCCAligAwIBAgIBATANBgkqhkiG9w0BAQsFADBJMQswCQYDVQQGEwJBVTEP
MA0GA1UECAwGU3lkbmV5MRIwEAYDVQQKDAlBQUFBIEluYy4xFTATBgNVBAMMDHd3
dy5hYWFhLmNvbTAeFw0xOTA3MjUwMjU0NDJaFw0yOTA3MjIwMjU0NDJaMF8xCzAJ
BgNVBAYTAkFVMRMwEQYDVQQIDApTb21lLVN0YXRlMSEwHwYDVQQKDBhJbnRlcm5l
dCBXaWRnaXRzIFB0eSBMdGQxGDAWBgNVBAMMDzEwNC4yNDguMTY4LjEwMTCCASIw
DQYJKoZIhvcNAQEBBQADggEPADCCAQoCggEBAKHrxFShBRzBaj4VZhnlf6w29dlj
kvZd59t1PXUn1tHtNW/7xd7Y4z+yXcSlVr0C02ixLcDZ5ssapo1y79aOLqh5cbw0
e5P07eTFeIeJ6xjbZifbalheeOwbqxXyPaSQ6NYyXMPgGJ7rEx7VJ8DFQk4cKDco
SZ7kqOfsSPvDmV6XzSZOnYm5NScqfeUhNk3/yA0dvofy835RESsPkrRrsYK3Qcfy
iYtpLLiAky0b6frvk1kEhItNcvLrpJIYeVJmpWZK/Y0XIZ1w+DhxCM6L2u1eZ1Rc
PjiIkPmu/nhGqJ8xryaPs7yStG+S28cXsm6aOvpGwUZeXty36NWIIYLc7R8CAwEA
AaNNMEswCQYDVR0TBAIwADAdBgNVHQ4EFgQU3xRiZm29p9cr/I9w1n1SkjgKQRMw
HwYDVR0jBBgwFoAUr412lFeKQWLmgwUiuck2Y6h7q70wDQYJKoZIhvcNAQELBQAD
ggEBAF8k7F7qXARPxWwgMCG+hJEe4rqWEzXXX57wqWku3ltHm+4NogA/ZMWaX76E
uI/Xz4Fkh08hpcafv85BfZl2kxXhY31sisv6/3PptrkY4qX5RsPPojmoeJgdvZZa
SZ7wCD1SfuiLpbcVfAT1t5DTv6uEezaCpbLSDk8aVbM55qBexRvOMtlxgX+ImBRR
9Xb05jyJAtX1r3iNVx9543USkOi/aedQVwbrT66OoK+o+IoztdRj3KgwHt0MNCdZ
iYdKd/xoiFpN5rnLrjW93v2t32A3dfgG7Z5BSW1Ii3zrA6ZCRm9cpZIahMtnZXl7
kOI49sTBwXbNVVPgm3jK5DNxxLA=
-----END CERTIFICATE-----
