Certificate:
    Data:
        Version: 3 (0x2)
        Serial Number: 3 (0x3)
        Signature Algorithm: sha256WithRSAEncryption
        Issuer: C=AU, ST=Sydney, O=AAAA Inc., CN=www.aaaa.com
        Validity
            Not Before: Dec  9 01:15:54 2019 GMT
            Not After : Dec  6 01:15:54 2029 GMT
        Subject: CN=www.test.com
        Subject Public Key Info:
            Public Key Algorithm: rsaEncryption
                RSA Public-Key: (2048 bit)
                Modulus:
                    00:e7:b9:e4:dc:f6:99:47:49:b0:c0:8a:c1:f8:11:
                    f8:a8:fb:5d:79:40:0e:dc:a2:c1:35:e6:93:49:8c:
                    b9:cb:e4:de:e5:7e:44:38:28:25:6d:59:04:8d:58:
                    d9:d6:bc:2e:03:d9:0c:e1:2d:67:72:18:a0:92:ec:
                    55:9d:cb:8f:d0:49:ee:19:9c:b6:e4:3e:3e:20:ed:
                    1a:34:63:77:85:9a:81:2b:83:0f:f0:94:b5:c4:f5:
                    33:da:15:c3:b0:04:ae:34:f3:13:08:b8:fe:70:76:
                    e0:b0:a1:51:b4:d5:ea:2b:62:16:53:9e:e1:41:fc:
                    fa:3e:37:cf:67:13:bf:80:9d:32:a7:59:15:74:3e:
                    bc:87:0d:18:8b:eb:8d:15:f6:63:13:f3:a1:20:5d:
                    a3:8d:17:64:bc:3d:52:1e:34:27:5d:eb:32:4f:2f:
                    51:cb:e5:e3:73:2b:7d:64:ac:70:dd:f5:ad:92:20:
                    48:a2:6c:b3:0b:85:cf:26:35:ae:ba:e7:fe:41:72:
                    54:7f:dd:28:72:50:50:14:7a:08:8e:2a:3f:a6:f9:
                    89:2f:09:af:a7:6f:0e:37:e6:73:89:45:fe:4b:55:
                    4b:74:4b:13:8a:0f:48:ea:c3:1c:f9:d9:b9:c1:22:
                    b0:14:69:81:01:ee:eb:8e:88:c0:a7:b8:d6:7d:67:
                    bb:af
                Exponent: 65537 (0x10001)
        X509v3 extensions:
            X509v3 Basic Constraints: 
                CA:FALSE
            X509v3 Subject Key Identifier: 
                9E:13:47:DC:06:0E:31:5A:D0:6A:EB:6D:23:67:B3:4F:B9:99:3C:7D
            X509v3 Authority Key Identifier: 
                AF:8D:76:94:57:8A:41:62:E6:83:05:22:B9:C9:36:63:A8:7B:AB:BD
    Signature Algorithm: sha256WithRSAEncryption
    Signature Value:
        55:6b:d2:6e:73:85:1a:7b:8e:67:03:d3:eb:84:91:04:69:67:
        ae:8b:f4:78:e9:a4:b6:8e:3f:b9:ca:89:89:78:93:7c:7a:43:
        c7:2a:18:a9:fa:91:39:52:e9:2d:2a:2b:5d:c8:b1:b8:58:e8:
        1a:a7:d4:8f:90:55:52:62:2f:fc:54:82:c8:7d:31:1c:64:7c:
        7a:ba:38:22:3c:68:83:d5:5c:9a:b6:a1:3f:3d:29:c3:df:6c:
        5f:4a:3b:65:f9:43:26:82:29:37:34:9d:e4:59:4d:e3:92:62:
        60:95:ef:cc:22:29:1c:41:00:a5:76:cb:91:54:69:a5:18:d1:
        b3:03:6a:ab:f1:15:aa:c4:b9:4d:40:8a:5a:7f:a9:c1:b9:6d:
        13:a5:c8:e5:80:49:ba:1e:48:92:6a:23:a5:7e:e6:83:d3:48:
        4e:01:5b:d1:1c:5b:01:2f:30:36:ca:f6:ef:63:65:a1:5d:89:
        5e:a6:6c:0a:b9:3f:e1:b2:b1:2c:67:cf:15:e7:b3:08:eb:cb:
        55:0c:57:a0:be:f4:50:0f:62:dc:e8:3d:7b:11:2b:0d:89:42:
        2a:ab:13:3e:7f:49:69:8c:b9:56:9e:7a:1b:e9:66:a3:5e:c8:
        4d:36:66:b0:80:c5:25:7c:05:a2:41:fa:fc:65:02:37:63:b8:
        8a:ce:ce:82
-----BEGIN CERTIFICATE-----
MIIDKDCCAhCgAwIBAgIBAzANBgkqhkiG9w0BAQsFADBJMQswCQYDVQQGEwJBVTEP
MA0GA1UECAwGU3lkbmV5MRIwEAYDVQQKDAlBQUFBIEluYy4xFTATBgNVBAMMDHd3
dy5hYWFhLmNvbTAeFw0xOTEyMDkwMTE1NTRaFw0yOTEyMDYwMTE1NTRaMBcxFTAT
BgNVBAMMDHd3dy50ZXN0LmNvbTCCASIwDQYJKoZIhvcNAQEBBQADggEPADCCAQoC
ggEBAOe55Nz2mUdJsMCKwfgR+Kj7XXlADtyiwTXmk0mMucvk3uV+RDgoJW1ZBI1Y
2da8LgPZDOEtZ3IYoJLsVZ3Lj9BJ7hmctuQ+PiDtGjRjd4WagSuDD/CUtcT1M9oV
w7AErjTzEwi4/nB24LChUbTV6itiFlOe4UH8+j43z2cTv4CdMqdZFXQ+vIcNGIvr
jRX2YxPzoSBdo40XZLw9Uh40J13rMk8vUcvl43MrfWSscN31rZIgSKJsswuFzyY1
rrrn/kFyVH/dKHJQUBR6CI4qP6b5iS8Jr6dvDjfmc4lF/ktVS3RLE4oPSOrDHPnZ
ucEisBRpgQHu646IwKe41n1nu68CAwEAAaNNMEswCQYDVR0TBAIwADAdBgNVHQ4E
FgQUnhNH3AYOMVrQauttI2ezT7mZPH0wHwYDVR0jBBgwFoAUr412lFeKQWLmgwUi
uck2Y6h7q70wDQYJKoZIhvcNAQELBQADggEBAFVr0m5zhRp7jmcD0+uEkQRpZ66L
9HjppLaOP7nKiYl4k3x6Q8cqGKn6kTlS6S0qK13IsbhY6Bqn1I+QVVJiL/xUgsh9
MRxkfHq6OCI8aIPVXJq2oT89KcPfbF9KO2X5QyaCKTc0neRZTeOSYmCV78wiKRxB
AKV2y5FUaaUY0bMDaqvxFarEuU1Ailp/qcG5bROlyOWASboeSJJqI6V+5oPTSE4B
W9EcWwEvMDbK9u9jZaFdiV6mbAq5P+GysSxnzxXnswjry1UMV6C+9FAPYtzoPXsR
Kw2JQiqrEz5/SWmMuVaeehvpZqNeyE02ZrCAxSV8BaJB+vxlAjdjuIrOzoI=
-----END CERTIFICATE-----
